(dp0
S'isShellCmd'
p1
I00
sS'cmd'
p2
(lp3
S'/app/easybuild/software/strelka/2.9.9-foss-2016b/libexec/tabix'
p4
aS'-p'
p5
aS'vcf'
p6
aS'/home/jfdey/git/easybuild-life-sciences/fh_easyconfigs/strelkaSomaticDemoAnalysis/results/variants/somatic.indels.vcf.gz'
p7
asS'errFile'
p8
S'/home/jfdey/git/easybuild-life-sciences/fh_easyconfigs/strelkaSomaticDemoAnalysis/workspace/pyflow.data/logs/pyflow_tasks_stderr_log.txt'
p9
sS'outFile'
p10
S'/home/jfdey/git/easybuild-life-sciences/fh_easyconfigs/strelkaSomaticDemoAnalysis/workspace/pyflow.data/logs/pyflow_tasks_stdout_log.txt'
p11
sS'env'
p12
NsS'nCores'
p13
I1
sS'cwd'
p14
S''
p15
s.