(dp0
S'isShellCmd'
p1
I00
sS'cmd'
p2
(lp3
S'/app/easybuild/software/strelka/2.9.9-foss-2016b/libexec/MergeRunStats'
p4
aS'--stats-file'
p5
aS'/home/jfdey/git/easybuild-life-sciences/fh_easyconfigs/strelkaSomaticDemoAnalysis/workspace/genomeSegment.tmpdir/runStats.chromId_000_demo20_0000.xml'
p6
aS'--output-file'
p7
aS'/home/jfdey/git/easybuild-life-sciences/fh_easyconfigs/strelkaSomaticDemoAnalysis/results/stats/runStats.xml'
p8
aS'--report-file'
p9
aS'/home/jfdey/git/easybuild-life-sciences/fh_easyconfigs/strelkaSomaticDemoAnalysis/results/stats/runStats.tsv'
p10
asS'errFile'
p11
S'/home/jfdey/git/easybuild-life-sciences/fh_easyconfigs/strelkaSomaticDemoAnalysis/workspace/pyflow.data/logs/pyflow_tasks_stderr_log.txt'
p12
sS'outFile'
p13
S'/home/jfdey/git/easybuild-life-sciences/fh_easyconfigs/strelkaSomaticDemoAnalysis/workspace/pyflow.data/logs/pyflow_tasks_stdout_log.txt'
p14
sS'env'
p15
NsS'nCores'
p16
I1
sS'cwd'
p17
S''
p18
s.