(dp0
S'isShellCmd'
p1
I01
sS'cmd'
p2
S'"/app/easybuild/software/strelka/2.9.9-foss-2016b/libexec/bgzip" "/home/jfdey/git/easybuild-life-sciences/fh_easyconfigs/strelkaSomaticDemoAnalysis/workspace/genomeSegment.tmpdir/somatic.snvs.unfiltered.chromId_000_demo20_0000.vcf" && "/app/easybuild/software/strelka/2.9.9-foss-2016b/libexec/bgzip" "/home/jfdey/git/easybuild-life-sciences/fh_easyconfigs/strelkaSomaticDemoAnalysis/workspace/genomeSegment.tmpdir/somatic.indels.unfiltered.chromId_000_demo20_0000.vcf"'
p3
sS'errFile'
p4
S'/home/jfdey/git/easybuild-life-sciences/fh_easyconfigs/strelkaSomaticDemoAnalysis/workspace/pyflow.data/logs/pyflow_tasks_stderr_log.txt'
p5
sS'outFile'
p6
S'/home/jfdey/git/easybuild-life-sciences/fh_easyconfigs/strelkaSomaticDemoAnalysis/workspace/pyflow.data/logs/pyflow_tasks_stdout_log.txt'
p7
sS'env'
p8
NsS'nCores'
p9
I1
sS'cwd'
p10
S''
p11
s.