(dp0
S'isShellCmd'
p1
I00
sS'cmd'
p2
(lp3
S'mv'
p4
aS'/home/jfdey/git/easybuild-life-sciences/fh_easyconfigs/strelkaSomaticDemoAnalysis/workspace/genomeSegment.tmpdir/somatic.indels.unfiltered.chromId_000_demo20_0000.vcf.gz'
p5
aS'/home/jfdey/git/easybuild-life-sciences/fh_easyconfigs/strelkaSomaticDemoAnalysis/results/variants/somatic.indels.vcf.gz'
p6
asS'errFile'
p7
S'/home/jfdey/git/easybuild-life-sciences/fh_easyconfigs/strelkaSomaticDemoAnalysis/workspace/pyflow.data/logs/pyflow_tasks_stderr_log.txt'
p8
sS'outFile'
p9
S'/home/jfdey/git/easybuild-life-sciences/fh_easyconfigs/strelkaSomaticDemoAnalysis/workspace/pyflow.data/logs/pyflow_tasks_stdout_log.txt'
p10
sS'env'
p11
NsS'nCores'
p12
I1
sS'cwd'
p13
S''
p14
s.