(dp0
S'StrelkaSomatic'
p1
(dp2
S'genomeRegionList'
p3
NsS'isEstimateSequenceError'
p4
I00
sS'isExome'
p5
I01
sS'ssnvNoiseStrandBiasFrac'
p6
S'0.0'
p7
sS'referenceFasta'
p8
S'/app/easybuild/software/strelka/2.9.9-foss-2016b/share/demo/strelka/data/demo20.fa'
p9
sS'normalBamList'
p10
(lp11
S'/app/easybuild/software/strelka/2.9.9-foss-2016b/share/demo/strelka/data/NA12892_demo20.bam'
p12
asS'indelErrorModelName'
p13
NsS'workflowScriptName'
p14
S'runWorkflow.py'
p15
sS'depthFilterMultiple'
p16
S'3.0'
p17
sS'statsMergeBin'
p18
S'/app/easybuild/software/strelka/2.9.9-foss-2016b/libexec/MergeRunStats'
p19
sS'isEVS'
p20
I01
sS'inputIndelErrorModelsFile'
p21
NsS'snvScoringModelFile'
p22
S'/app/easybuild/software/strelka/2.9.9-foss-2016b/share/config/somaticSNVScoringModels.json'
p23
sS'libexecDir'
p24
S'/app/easybuild/software/strelka/2.9.9-foss-2016b/libexec'
p25
sS'isRetainTempFiles'
p26
I00
sS'minTier2Mapq'
p27
S'0'
p28
sS'ssnvQuality_LowerBound'
p29
S'15'
p30
sS'isReportEVSFeatures'
p31
I00
sS'tabixBin'
p32
S'/app/easybuild/software/strelka/2.9.9-foss-2016b/libexec/tabix'
p33
sS'sindelQuality_LowerBound'
p34
S'40'
p35
sS'snvMaxSpanningDeletionFrac'
p36
S'0.75'
p37
sS'callRegionsBed'
p38
NsS'ssnvPrior'
p39
S'0.0001'
p40
sS'sindelPrior'
p41
S'0.000001'
p42
sS'samtoolsBin'
p43
S'/app/easybuild/software/strelka/2.9.9-foss-2016b/libexec/samtools'
p44
sS'ssnvNoise'
p45
S'0.0000000005'
p46
sS'bgcatBin'
p47
S'/app/easybuild/software/strelka/2.9.9-foss-2016b/libexec/bgzf_cat'
p48
sS'indelContamTolerance'
p49
S'0.15'
p50
sS'vcfCmdlineSwapper'
p51
S'/app/easybuild/software/strelka/2.9.9-foss-2016b/libexec/vcfCmdlineSwapper.py'
p52
sS'forcedGTList'
p53
NsS'extraVariantCallerArguments'
p54
NsS'indelCandidatesList'
p55
NsS'callLocalMemMb'
p56
F1536.0
sS'strelkaSomaticBin'
p57
S'/app/easybuild/software/strelka/2.9.9-foss-2016b/libexec/strelka2'
p58
sS'isWriteRealignedBam'
p59
g28
sS'getChromDepthBin'
p60
S'/app/easybuild/software/strelka/2.9.9-foss-2016b/libexec/GetChromDepth'
p61
sS'callSGEMemMb'
p62
I4096
sS'mergeChromDepth'
p63
S'/app/easybuild/software/strelka/2.9.9-foss-2016b/libexec/mergeChromDepth.py'
p64
sS'errorEstimationMinChromMb'
p65
I5
sS'catScript'
p66
S'/app/easybuild/software/strelka/2.9.9-foss-2016b/libexec/cat.py'
p67
sS'runDir'
p68
S'/home/jfdey/git/easybuild-life-sciences/fh_easyconfigs/strelkaSomaticDemoAnalysis'
p69
sS'indelScoringModelFile'
p70
S'/app/easybuild/software/strelka/2.9.9-foss-2016b/share/config/somaticIndelScoringModels.json'
p71
sS'regionStrList'
p72
NsS'isOutputCallableRegions'
p73
I00
sS'ssnvContamTolerance'
p74
S'0.15'
p75
sS'sindelNoiseFactor'
p76
S'2.2'
p77
sS'snvMaxFilteredBasecallFrac'
p78
S'0.4'
p79
sS'errorEstimationMinTotalMb'
p80
I50
sS'callMemMbOverride'
p81
I1024
sS'userConfigPath'
p82
NsS'maxIndelSize'
p83
S'49'
p84
sS'noiseVcfList'
p85
NsS'isRNA'
p86
I00
sS'minTier1Mapq'
p87
S'20'
p88
sS'htsfileBin'
p89
S'/app/easybuild/software/strelka/2.9.9-foss-2016b/libexec/htsfile'
p90
sS'tumorBamList'
p91
(lp92
S'/app/easybuild/software/strelka/2.9.9-foss-2016b/share/demo/strelka/data/NA12891_demo20.bam'
p93
asS'scanSizeMb'
p94
I12
sS'bgzipBin'
p95
S'/app/easybuild/software/strelka/2.9.9-foss-2016b/libexec/bgzip'
p96
sS'configCommandLine'
p97
(lp98
S'/app/easybuild/software/strelka/2.9.9-foss-2016b/bin/configureStrelkaSomaticWorkflow.py'
p99
aS'--tumorBam=/app/easybuild/software/strelka/2.9.9-foss-2016b/bin/../share/demo/strelka/data/NA12891_demo20.bam'
p100
aS'--normalBam=/app/easybuild/software/strelka/2.9.9-foss-2016b/bin/../share/demo/strelka/data/NA12892_demo20.bam'
p101
aS'--referenceFasta=/app/easybuild/software/strelka/2.9.9-foss-2016b/bin/../share/demo/strelka/data/demo20.fa'
p102
aS'--callMemMb=1024'
p103
aS'--exome'
p104
aS'--runDir=./strelkaSomaticDemoAnalysis'
p105
asS'indelMaxWindowFilteredBasecallFrac'
p106
S'0.3'
p107
ss.