(dp0
S'isShellCmd'
p1
I00
sS'cmd'
p2
(lp3
S'/app/easybuild/software/strelka/2.9.9-foss-2016b/libexec/strelka2'
p4
aS'--region'
p5
aS'demo20:1-5000'
p6
aS'--ref'
p7
aS'/app/easybuild/software/strelka/2.9.9-foss-2016b/share/demo/strelka/data/demo20.fa'
p8
aS'--max-indel-size'
p9
aS'49'
p10
aS'--min-mapping-quality'
p11
aS'20'
p12
aS'--somatic-snv-rate'
p13
aS'0.0001'
p14
aS'--shared-site-error-rate'
p15
aS'0.0000000005'
p16
aS'--shared-site-error-strand-bias-fraction'
p17
aS'0.0'
p18
aS'--somatic-indel-rate'
p19
aS'0.000001'
p20
aS'--shared-indel-error-factor'
p21
aS'2.2'
p22
aS'--tier2-min-mapping-quality'
p23
aS'0'
p24
aS'--strelka-snv-max-filtered-basecall-frac'
p25
aS'0.4'
p26
aS'--strelka-snv-max-spanning-deletion-frac'
p27
aS'0.75'
p28
aS'--strelka-snv-min-qss-ref'
p29
aS'15'
p30
aS'--strelka-indel-max-window-filtered-basecall-frac'
p31
aS'0.3'
p32
aS'--strelka-indel-min-qsi-ref'
p33
aS'40'
p34
aS'--ssnv-contam-tolerance'
p35
aS'0.15'
p36
aS'--indel-contam-tolerance'
p37
aS'0.15'
p38
aS'--somatic-snv-scoring-model-file'
p39
aS'/app/easybuild/software/strelka/2.9.9-foss-2016b/share/config/somaticSNVScoringModels.json'
p40
aS'--somatic-indel-scoring-model-file'
p41
aS'/app/easybuild/software/strelka/2.9.9-foss-2016b/share/config/somaticIndelScoringModels.json'
p42
aS'--normal-align-file'
p43
aS'/app/easybuild/software/strelka/2.9.9-foss-2016b/share/demo/strelka/data/NA12892_demo20.bam'
p44
aS'--tumor-align-file'
p45
aS'/app/easybuild/software/strelka/2.9.9-foss-2016b/share/demo/strelka/data/NA12891_demo20.bam'
p46
aS'--somatic-snv-file'
p47
aS'/home/jfdey/git/easybuild-life-sciences/fh_easyconfigs/strelkaSomaticDemoAnalysis/workspace/genomeSegment.tmpdir/somatic.snvs.unfiltered.chromId_000_demo20_0000.vcf'
p48
aS'--somatic-indel-file'
p49
aS'/home/jfdey/git/easybuild-life-sciences/fh_easyconfigs/strelkaSomaticDemoAnalysis/workspace/genomeSegment.tmpdir/somatic.indels.unfiltered.chromId_000_demo20_0000.vcf'
p50
aS'--stats-file'
p51
aS'/home/jfdey/git/easybuild-life-sciences/fh_easyconfigs/strelkaSomaticDemoAnalysis/workspace/genomeSegment.tmpdir/runStats.chromId_000_demo20_0000.xml'
p52
asS'errFile'
p53
S'/home/jfdey/git/easybuild-life-sciences/fh_easyconfigs/strelkaSomaticDemoAnalysis/workspace/pyflow.data/logs/pyflow_tasks_stderr_log.txt'
p54
sS'outFile'
p55
S'/home/jfdey/git/easybuild-life-sciences/fh_easyconfigs/strelkaSomaticDemoAnalysis/workspace/pyflow.data/logs/pyflow_tasks_stdout_log.txt'
p56
sS'env'
p57
NsS'nCores'
p58
I1
sS'cwd'
p59
S''
p60
s.